; Function Attrs: nounwind uwtable
define internal i32 @git_read_tree_config(ptr noundef %0, ptr noundef %1, ptr noundef %2, ptr noundef %3) #0 {
  %5 = tail call i32 @strcmp(ptr noundef nonnull dereferenceable(1) %0, ptr noundef nonnull dereferenceable(18) @.str.54) #13
  %.not = icmp eq i32 %5, 0
  br i1 %.not, label %6, label %8

6:                                                ; preds = %4
  %7 = tail call i32 @git_default_submodule_config(ptr noundef nonnull %0, ptr noundef %1, ptr noundef %3) #11
  br label %10

8:                                                ; preds = %4
  %9 = tail call i32 @git_default_config(ptr noundef nonnull %0, ptr noundef %1, ptr noundef %2, ptr noundef %3) #11
  br label %10

10:                                               ; preds = %8, %6
  %.0 = phi i32 [ %9, %8 ], [ %7, %6 ]
  ret i32 %.0
}